; Function Attrs: mustprogress uwtable
define void @_ZN5boost15program_options6detail7cmdlineC2ERKSt6vectorINSt7__cxx1112basic_stringIcSt11char_traitsIcESaIcEEESaIS9_EE(ptr noundef nonnull align 8 dereferenceable(112) %0, ptr noundef nonnull align 8 dereferenceable(24) %1) unnamed_addr #3 align 2 personality ptr @__gxx_personality_v0 {
  tail call void @llvm.memset.p0.i64(ptr noundef nonnull align 8 dereferenceable(24) %0, i8 0, i64 24, i1 false)
  %3 = getelementptr inbounds nuw i8, ptr %0, i64 48
  store ptr null, ptr %3, align 8, !tbaa !14
  %4 = getelementptr inbounds nuw i8, ptr %0, i64 80
  store ptr null, ptr %4, align 8, !tbaa !14
  %5 = invoke noundef nonnull align 8 dereferenceable(24) ptr @_ZNSt6vectorINSt7__cxx1112basic_stringIcSt11char_traitsIcESaIcEEESaIS5_EEaSERKS7_(ptr noundef nonnull align 8 dereferenceable(112) %0, ptr noundef nonnull align 8 dereferenceable(24) %1)
          to label %6 unwind label %10

6:                                                ; preds = %2
  %7 = getelementptr inbounds nuw i8, ptr %0, i64 24
  store i32 1015, ptr %7, align 8, !tbaa !16
  %8 = getelementptr inbounds nuw i8, ptr %0, i64 32
  %9 = getelementptr inbounds nuw i8, ptr %0, i64 28
  store i8 0, ptr %9, align 4, !tbaa !26
  tail call void @llvm.memset.p0.i64(ptr noundef nonnull align 8 dereferenceable(16) %8, i8 0, i64 16, i1 false)
  ret void

10:                                               ; preds = %2
  %11 = landingpad { ptr, i32 }
          cleanup
  tail call void @_ZN5boost10function_nISt6vectorINS_15program_options12basic_optionIcEESaIS4_EEJRS1_INSt7__cxx1112basic_stringIcSt11char_traitsIcESaIcEEESaISC_EEEED2Ev(ptr noundef nonnull align 8 dereferenceable(32) %4) #28
  tail call void @_ZN5boost10function_nISt4pairINSt7__cxx1112basic_stringIcSt11char_traitsIcESaIcEEES7_EJRKS7_EED2Ev(ptr noundef nonnull align 8 dereferenceable(32) %3) #28
  tail call void @_ZNSt6vectorINSt7__cxx1112basic_stringIcSt11char_traitsIcESaIcEEESaIS5_EED2Ev(ptr noundef nonnull align 8 dereferenceable(24) %0) #28
  resume { ptr, i32 } %11
}